(dp0
S'botnet401Alpha60hellopythonNosuchnick/channel\r\nbotnet472Alpha60isunknownmodechartome'
p1
S'true'
p2
sS''
p3
S'true'
p4
sS'FS'
p5
S'true'
p6
sS'constant'
p7
S'true'
p8
sS'confusedbot'
p9
S'true'
p10
sS'botnet401Alpha60colmNosuchnick/channel'
p11
g4
sS'botnet401Alpha60armanNosuchnick/channel'
p12
S'true'
p13
sS'arthur_bot'
p14
S'true'
p15
sS'barr_bot'
p16
S'true'
p17
sS'botnet401Alpha60textyNosuchnick/channel\r\nbotnet401Alpha60textyNosuchnick/channel'
p18
S'true'
p19
sS'botnet421Alpha60pumpkinUnknowncommand\r\nbotnet421Alpha60botnet250Alpha60Highestconnectioncount47(47clients)(1387connectionsreceived)Unknowncommand'
p20
g10
sS'dogebot'
p21
S'true'
p22
sS'appleton_bot'
p23
S'true'
p24
sS'botbut'
p25
S'true'
p26
sS'texty'
p27
S'true'
p28
sS'yes'
p29
S'true'
p30
sS'botnet421Alpha60botnet421Alpha60botnet250Alpha60Highestconnectioncount47(47clients)(1387connectionsreceived)UnknowncommandUnknowncommand\r\nbotnet401Alpha60botnet421Alpha60pumpkinUnknowncommandNosuchnick/channel\r\nbotnet472Alpha60isunknownmodechartome'
p31
g10
sS'botnet401Alpha60botnet401Alpha60armanNosuchnick/channelNosuchnick/channel\r\nbotnet472Alpha60isunknownmodechartome\r\nbotnet421Alpha60botnet401Alpha60textyNosuchnick/channelUnknowncommand'
p32
S'true'
p33
sS'botnet401Alpha60NONAMENosuchnick/channel\r\nAlpha60'
p34
S'true'
p35
sS'botteke'
p36
g17
sS'jgfhj'
p37
S'true'
p38
sS'bat'
p39
S'true'
p40
sS'reportbot'
p41
S'true'
p42
sS'tobot'
p43
S'true'
p44
sS'TestBot'
p45
S'true'
p46
sS'OlBot'
p47
S'true'
p48
sS'E-E_CUMMINGS'
p49
g30
sS'test'
p50
S'true'
p51
sS'botnet401Alpha60armanNosuchnick/channel\r\nbotnet401Alpha60textyNosuchnick/channel'
p52
g33
sS'botnet401Alpha60butNosuchnick/channel\r\nbotnet401Alpha60armansansdNosuchnick/channel'
p53
g33
sS'dead_author'
p54
S'true'
p55
sS'botbotbot'
p56
g51
sS'cadavre_bot'
p57
g17
sS'botnet421Alpha60botnet372Alpha60-Unknowncommand\r\nbotnet421Alpha60botnet372Alpha60-Unknowncommand'
p58
S'true'
p59
sS'ursula_leguin'
p60
g30
sS'gissing_bot'
p61
S'true'
p62
sS'gijs'
p63
g28
sS'y_bot'
p64
g62
sS'GYSIN'
p65
S'true'
p66
sS'botnet401Alpha60relearn_Nosuchnick/channel'
p67
S'true'
p68
sS'PINGbotnet'
p69
g6
sS"botnet482Alpha60#2084You'renotchanneloperator"
p70
S'true'
p71
sS'armansansd'
p72
S'true'
p73
sS'CUMMINGS'
p74
S'true'
p75
sS'anonymous'
p76
g28
sS'botbotbotbot'
p77
S'true'
p78
sS'pascsaq'
p79
g73
sS'botnet401Alpha60fdghdfghNosuchnick/channel\r\nbotnet401Alpha60butNosuchnick/channel'
p80
S'true'
p81
sS'botnet404Alpha60#2084Cannotsendtochannel'
p82
g81
sS'alger_bot'
p83
g62
sS'botnet401Alpha60gdhNosuchnick/channel\r\nbotnet472Alpha60isunknownmodechartome\r\nbotnet401Alpha60tglobalusers35Max47Nosuchnick/channel\r\nbotnet472Alpha60isunknownmodechartome'
p84
g10
sS'youhoubot'
p85
S'true'
p86
sS'relearn__'
p87
g51
sS'Whatever'
p88
g2
sS'botnet401Alpha60fghjfghjNosuchnick/channel\r\nbotnet401Alpha60fghjfghjNosuchnick/channel'
p89
S'true'
p90
sS'stephane'
p91
g17
sS'Olm'
p92
S'true'
p93
sS'botnet401Alpha60betterNosuchnick/channel'
p94
g4
sS'botnet401Alpha60textyNosuchnick/channel'
p95
S'true'
p96
sS'octavia_butler'
p97
S'true'
p98
sS'colm'
p99
g17
sS'poetbot'
p100
g17
sS'botbot'
p101
g51
sS'botnet401Alpha60fdghdfghNosuchnick/channel'
p102
g4
sS'botnet401Alpha60relearn_Nosuchnick/channel\r\nbotnet401Alpha60relearn_Nosuchnick/channel'
p103
g81
sS'botnet401Alpha60textyNosuchnick/channel\r\nbotnet401Alpha60textyNosuchnick/channel\r\nbotnet401Alpha60textyNosuchnick/channel\r\nbotnet401Alpha60textyNosuchnick/channel'
p104
g13
sS'constant_n'
p105
g93
s.