(dp0
S'circles'
p1
S'16'
p2
sS'2084ircnotes'
p3
S'2'
p4
sS'blibli'
p5
S'5'
p6
sS'syncam'
p7
S'1'
p8
sS'plotbot'
p9
S'6'
p10
sS'plotbotviz'
p11
S'7'
p12
sS'mylittlepony'
p13
S'4'
p14
sS'hiddenroom'
p15
S'0'
p16
sS'testtesttest'
p17
S'15'
p18
sS'testoo'
p19
S'9'
p20
sS'beklh'
p21
S'12'
p22
sS'relearn'
p23
S'10'
p24
sS'2084'
p25
S'3'
p26
sS'new_babylon'
p27
S'11'
p28
sS'irc2pd'
p29
S'8'
p30
sS'lasttest'
p31
S'13'
p32
sS'plotbot-virtual'
p33
S'14'
p34
s.