(dp0
S'Alpha60Agent17'
p1
S'Agent'
p2
sS'amuel'
p3
S'ssssssssssssssssssssssssssssssssssssssssssssssssssssssssssssssssssssssssssssssssssssssssssssssssss'
p4
sS'cc'
p5
S'cc'
p6
sS'Robert'
p7
S'Hello'
p8
sS'automatist'
p9
S'foo'
p10
sS'computer'
p11
S'halloechen'
p12
sS'gdh'
p13
S'john-john'
p14
sS'texty'
p15
g2
sS'eric'
p16
S'eric'
p17
sS'norobutttt'
p18
S'halloechen'
p19
sS'Someone'
p20
S'halloechen'
p21
sS'manetta'
p22
S'm'
p23
sS'Demure'
p24
S'Mathijs'
p25
sS'Alpha60'
p26
S' true'
p27
sS'cath'
p28
S'marcella'
p29
sS'juego'
p30
S'yourrealname'
p31
sS'hellocatfood'
p32
S'AntonioRoberts'
p33
sS'nick'
p34
S'sam'
p35
sS'sista'
p36
S'sistasista'
p37
sS'relearn'
p38
S'm'
p39
sS'stephane'
p40
g2
sS"tglobalusers35Max47\r\nbotnet250Alpha60Highestconnectioncount47(47clients)(1387connectionsreceived)\r\nbotnet375Alpha60-botnetMessageoftheDay-\r\nbotnet372Alpha60-Welcometo\r\nbotnet372Alpha60-\r\nbotnet372Alpha60-____________\r\nbotnet372Alpha60-|___\\/_\\(_)||||\r\nbotnet372Alpha60-__)||||/_\\||||_\r\nbotnet372Alpha60-/__/||_||(_)|___|\r\nbotnet372Alpha60-|_____|\\___/\\___/|_|\r\nbotnet372Alpha60-\r\nbotnet372Alpha60-\r\nbotnet372Alpha60-_________\r\nbotnet372Alpha60-|_\\(_)_________/_|||_||_____\r\nbotnet372Alpha60-||_)|/__|/_\\/_\\||_|__|'_\\/_\\\r\nbotnet372Alpha60-|_<|\\__\\__/|(_)|_|||_||||__/\r\nbotnet372Alpha60-|_|\\_\\_|___/\\___|\\___/|_|\\__|_||_|\\___|\r\nbotnet372Alpha60-\r\nbotnet372Alpha60-______\r\nbotnet372Alpha60-|__)___||_______||_\r\nbotnet372Alpha60-|_\\/_\\|__|'_\\/_\\__|\r\nbotnet372Alpha60-||_)|(_)||_||||__/|_\r\nbotnet372Alpha60-|____/\\___/\\__|_||_|\\___|\\__|\r\nbotnet372Alpha60-\r\nbotnet372Alpha60-\r\nbotnet372Alpha60-\r\nbotnet376Alpha60Endof/MOTDcommand.\r\nAlpha60"
p41
S'47'
p42
sS'Alpha60Agent0'
p43
g2
sS'pumpkin'
p44
S'jessica'
p45
sS'gijs_'
p46
S'appelsap'
p47
sS'moose'
p48
S'lidia'
p49
sS"tglobalusers36Max47\r\nbotnet250Alpha60Highestconnectioncount47(47clients)(2058connectionsreceived)\r\nbotnet375Alpha60-botnetMessageoftheDay-\r\nbotnet372Alpha60-Welcometo\r\nbotnet372Alpha60-\r\nbotnet372Alpha60-____________\r\nbotnet372Alpha60-|___\\/_\\(_)||||\r\nbotnet372Alpha60-__)||||/_\\||||_\r\nbotnet372Alpha60-/__/||_||(_)|___|\r\nbotnet372Alpha60-|_____|\\___/\\___/|_|\r\nbotnet372Alpha60-\r\nbotnet372Alpha60-\r\nbotnet372Alpha60-_________\r\nbotnet372Alpha60-|_\\(_)_________/_|||_||_____\r\nbotnet372Alpha60-||_)|/__|/_\\/_\\||_|__|'_\\/_\\\r\nbotnet372Alpha60-|_<|\\__\\__/|(_)|_|||_||||__/\r\nbotnet372Alpha60-|_|\\_\\_|___/\\___|\\___/|_|\\__|_||_|\\___|\r\nbotnet372Alpha60-\r\nbotnet372Alpha60-______\r\nbotnet372Alpha60-|__)___||_______||_\r\nbotnet372Alpha60-|_\\/_\\|__|'_\\/_\\__|\r\nbotnet372Alpha60-||_)|(_)||_||||__/|_\r\nbotnet372Alpha60-|____/\\___/\\__|_||_|\\___|\\__|\r\nbotnet372Alpha60-\r\nbotnet372Alpha60-\r\nbotnet372Alpha60-\r\nbotnet376Alpha60Endof/MOTDcommand.\r\nAlpha60"
p50
S'47'
p51
sS'samuel'
p52
S'samuel'
p53
sS'hellopython'
p54
S'hellopython'
p55
sS'natacha'
p56
S'natacha'
p57
sS'capture'
p58
S'yourrealname'
p59
sS'colm__'
p60
S'colm'
p61
sS'sakasama_'
p62
S'octaviabutler'
p63
sS'hellopythonbot'
p64
S'hellopythonbot'
p65
sS'realhuman'
p66
S'halloechen'
p67
sS'colm_'
p68
S'colm'
p69
sS'botnet472Bryantisunknownmodechartome\r\npumpkin'
p70
S''
p71
sS'e'
p72
S'eric'
p73
sS'm'
p74
S'm'
p75
sS'sakasama'
p76
S'helloworld'
p77
sS'hello'
p78
S'halloechen'
p79
s.